; Function Attrs: nounwind uwtable
define internal i32 @rsapss_to_SubjectPublicKeyInfo_der_encode(ptr noundef %0, ptr noundef %1, ptr noundef %2, ptr noundef readnone captures(address_is_null) %3, i32 noundef %4, ptr noundef %5, ptr noundef %6) #0 {
  %.not = icmp eq ptr %3, null
  br i1 %.not, label %9, label %8

8:                                                ; preds = %7
  tail call void @ERR_new() #5
  tail call void @ERR_set_debug(ptr noundef nonnull @.str, i32 noundef 1447, ptr noundef nonnull @__func__.rsapss_to_SubjectPublicKeyInfo_der_encode) #5
  tail call void (i32, i32, ptr, ...) @ERR_set_error(i32 noundef 57, i32 noundef 524550, ptr noundef null) #5
  br label %14

9:                                                ; preds = %7
  %10 = and i32 %4, 2
  %.not7 = icmp eq i32 %10, 0
  br i1 %.not7, label %13, label %11

11:                                               ; preds = %9
  %12 = tail call fastcc i32 @key2any_encode(ptr noundef %0, ptr noundef %1, ptr noundef %2, i32 noundef 912, ptr noundef nonnull @.str.16, ptr noundef nonnull @rsa_check_key_type, ptr noundef nonnull @key_to_spki_der_pub_bio, ptr noundef %5, ptr noundef %6, ptr noundef nonnull @prepare_rsa_params, ptr noundef nonnull @rsa_pub_k2d)
  br label %14

13:                                               ; preds = %9
  tail call void @ERR_new() #5
  tail call void @ERR_set_debug(ptr noundef nonnull @.str, i32 noundef 1447, ptr noundef nonnull @__func__.rsapss_to_SubjectPublicKeyInfo_der_encode) #5
  tail call void (i32, i32, ptr, ...) @ERR_set_error(i32 noundef 57, i32 noundef 524550, ptr noundef null) #5
  br label %14

14:                                               ; preds = %13, %11, %8
  %.0 = phi i32 [ 0, %8 ], [ %12, %11 ], [ 0, %13 ]
  ret i32 %.0
}